target datalayout = "e-m:e-p270:32:32-p271:32:32-p272:64:64-i64:64-i128:128-f80:128-n8:16:32:64-S128"
target triple = "x86_64-pc-linux-gnu"

%struct.uv__queue = type { ptr, ptr }
%struct.uv__io_s = type { ptr, %struct.uv__queue, %struct.uv__queue, i32, i32, i32 }
%struct.uv_udp_s = type { ptr, ptr, i32, ptr, %struct.uv__queue, %union.anon.1, ptr, i32, i64, i64, ptr, ptr, %struct.uv__io_s, %struct.uv__queue, %struct.uv__queue }
%union.anon.1 = type { [4 x ptr] }

; Function Attrs: nounwind uwtable
define dso_local i32 @uv_udp_try_send2(ptr noundef %0, i32 noundef %1, ptr noundef %2, ptr noundef %3, ptr noundef %4, i32 noundef %5) #0 {
  %7 = alloca i32, align 4
  %8 = alloca ptr, align 8
  %9 = alloca i32, align 4
  %10 = alloca ptr, align 8
  %11 = alloca ptr, align 8
  %12 = alloca ptr, align 8
  %13 = alloca i32, align 4
  store ptr %0, ptr %8, align 8
  store i32 %1, ptr %9, align 4
  store ptr %2, ptr %10, align 8
  store ptr %3, ptr %11, align 8
  store ptr %4, ptr %12, align 8
  store i32 %5, ptr %13, align 4
  %14 = load i32, ptr %9, align 4
  %15 = icmp ult i32 %14, 1
  br i1 %15, label %16, label %17

16:                                               ; preds = %6
  store i32 -22, ptr %7, align 4
  br label %34

17:                                               ; preds = %6
  %18 = load i32, ptr %13, align 4
  %19 = icmp ne i32 %18, 0
  br i1 %19, label %20, label %21

20:                                               ; preds = %17
  store i32 -22, ptr %7, align 4
  br label %34

21:                                               ; preds = %17
  %22 = load ptr, ptr %8, align 8
  %23 = getelementptr inbounds nuw %struct.uv_udp_s, ptr %22, i32 0, i32 9
  %24 = load i64, ptr %23, align 8
  %25 = icmp ugt i64 %24, 0
  br i1 %25, label %26, label %27

26:                                               ; preds = %21
  store i32 -11, ptr %7, align 4
  br label %34

27:                                               ; preds = %21
  %28 = load ptr, ptr %8, align 8
  %29 = load i32, ptr %9, align 4
  %30 = load ptr, ptr %10, align 8
  %31 = load ptr, ptr %11, align 8
  %32 = load ptr, ptr %12, align 8
  %33 = call i32 @uv__udp_try_send2(ptr noundef %28, i32 noundef %29, ptr noundef %30, ptr noundef %31, ptr noundef %32)
  store i32 %33, ptr %7, align 4
  br label %34

34:                                               ; preds = %27, %26, %20, %16
  %35 = load i32, ptr %7, align 4
  ret i32 %35
}