; Function Attrs: nounwind uwtable
define dso_local i32 @uv_udp_try_send2(ptr noundef %0, i32 noundef %1, ptr noundef %2, ptr noundef %3, ptr noundef %4, i32 noundef %5) local_unnamed_addr #0 {
  %7 = icmp ne i32 %1, 0
  %.not = icmp eq i32 %5, 0
  %or.cond = and i1 %7, %.not
  br i1 %or.cond, label %8, label %13

8:                                                ; preds = %6
  %9 = getelementptr inbounds nuw i8, ptr %0, i64 104
  %10 = load i64, ptr %9, align 8
  %.not9 = icmp eq i64 %10, 0
  br i1 %.not9, label %11, label %13

11:                                               ; preds = %8
  %12 = tail call i32 @uv__udp_try_send2(ptr noundef nonnull %0, i32 noundef %1, ptr noundef %2, ptr noundef %3, ptr noundef %4) #26
  br label %13

13:                                               ; preds = %8, %6, %11
  %.0 = phi i32 [ %12, %11 ], [ -22, %6 ], [ -11, %8 ]
  ret i32 %.0
}